target datalayout = "e-m:e-p270:32:32-p271:32:32-p272:64:64-i64:64-i128:128-f80:128-n8:16:32:64-S128"
target triple = "x86_64-pc-linux-gnu"

%struct.pair_t = type { i64, i64 }

; Function Attrs: nounwind sspstrong uwtable
define internal i32 @pair_byte_cmp(ptr noundef %0, ptr noundef %1) #0 {
  %3 = alloca ptr, align 8
  %4 = alloca ptr, align 8
  %5 = alloca i64, align 8
  store ptr %0, ptr %3, align 8, !tbaa !7
  store ptr %1, ptr %4, align 8, !tbaa !7
  call void @llvm.lifetime.start.p0(i64 8, ptr %5) #28
  %6 = load ptr, ptr %3, align 8, !tbaa !7
  %7 = getelementptr inbounds nuw %struct.pair_t, ptr %6, i32 0, i32 0
  %8 = load i64, ptr %7, align 8, !tbaa !166
  %9 = load ptr, ptr %4, align 8, !tbaa !7
  %10 = getelementptr inbounds nuw %struct.pair_t, ptr %9, i32 0, i32 0
  %11 = load i64, ptr %10, align 8, !tbaa !166
  %12 = sub i64 %8, %11
  store i64 %12, ptr %5, align 8, !tbaa !11
  %13 = load i64, ptr %5, align 8, !tbaa !11
  %14 = icmp ne i64 %13, 0
  br i1 %14, label %15, label %19

15:                                               ; preds = %2
  %16 = load i64, ptr %5, align 8, !tbaa !11
  %17 = icmp sgt i64 %16, 0
  %18 = select i1 %17, i32 1, i32 -1
  br label %20

19:                                               ; preds = %2
  br label %20

20:                                               ; preds = %19, %15
  %21 = phi i32 [ %18, %15 ], [ 0, %19 ]
  call void @llvm.lifetime.end.p0(i64 8, ptr %5) #28
  ret i32 %21
}