; Function Attrs: mustprogress nofree norecurse nosync nounwind sspstrong willreturn memory(argmem: read) uwtable
define internal range(i32 -1, 2) i32 @pair_byte_cmp(ptr noundef readonly captures(none) %0, ptr noundef readonly captures(none) %1) #24 {
  %3 = load i64, ptr %0, align 8, !tbaa !292
  %4 = load i64, ptr %1, align 8, !tbaa !292
  %5 = sub i64 %3, %4
  %.not = icmp eq i64 %3, %4
  %6 = icmp sgt i64 %5, 0
  %7 = select i1 %6, i32 1, i32 -1
  %8 = select i1 %.not, i32 0, i32 %7
  ret i32 %8
}